target datalayout = "e-m:e-p270:32:32-p271:32:32-p272:64:64-i64:64-i128:128-f80:128-n8:16:32:64-S128"
target triple = "x86_64-pc-linux-gnu"

%struct.TupleDescData = type { i32, i32, i32, i32, ptr, [0 x %struct.CompactAttribute] }
%struct.CompactAttribute = type { i32, i16, i8, i8, i8, i8, i8, i8, i8 }
%struct.FormData_pg_attribute = type { i32, %struct.nameData, i32, i16, i16, i32, i16, i8, i8, i8, i8, i8, i8, i8, i8, i8, i8, i8, i16, i32 }
%struct.nameData = type { [64 x i8] }

; Function Attrs: inlinehint nounwind uwtable
define internal ptr @TupleDescAttr(ptr noundef %0, i32 noundef %1) #2 {
  %3 = alloca ptr, align 8
  %4 = alloca i32, align 4
  %5 = alloca ptr, align 8
  store ptr %0, ptr %3, align 8
  store i32 %1, ptr %4, align 4
  call void @llvm.lifetime.start.p0(i64 8, ptr %5) #8
  %6 = load ptr, ptr %3, align 8
  %7 = load ptr, ptr %3, align 8
  %8 = getelementptr inbounds nuw %struct.TupleDescData, ptr %7, i32 0, i32 0
  %9 = load i32, ptr %8, align 8
  %10 = sext i32 %9 to i64
  %11 = mul i64 %10, 16
  %12 = add i64 24, %11
  %13 = getelementptr inbounds nuw i8, ptr %6, i64 %12
  store ptr %13, ptr %5, align 8
  %14 = load ptr, ptr %5, align 8
  %15 = load i32, ptr %4, align 4
  %16 = sext i32 %15 to i64
  %17 = getelementptr inbounds %struct.FormData_pg_attribute, ptr %14, i64 %16
  call void @llvm.lifetime.end.p0(i64 8, ptr %5) #8
  ret ptr %17
}

; Function Attrs: nounwind uwtable
define dso_local void @TupleDescCopyEntry(ptr noundef %0, i16 noundef signext %1, ptr noundef %2, i16 noundef signext %3) #0 {
  %5 = alloca ptr, align 8
  %6 = alloca i16, align 2
  %7 = alloca ptr, align 8
  %8 = alloca i16, align 2
  %9 = alloca ptr, align 8
  %10 = alloca ptr, align 8
  store ptr %0, ptr %5, align 8
  store i16 %1, ptr %6, align 2
  store ptr %2, ptr %7, align 8
  store i16 %3, ptr %8, align 2
  call void @llvm.lifetime.start.p0(i64 8, ptr %9) #8
  %11 = load ptr, ptr %5, align 8
  %12 = load i16, ptr %6, align 2
  %13 = sext i16 %12 to i32
  %14 = sub i32 %13, 1
  %15 = call ptr @TupleDescAttr(ptr noundef %11, i32 noundef %14)
  store ptr %15, ptr %9, align 8
  call void @llvm.lifetime.start.p0(i64 8, ptr %10) #8
  %16 = load ptr, ptr %7, align 8
  %17 = load i16, ptr %8, align 2
  %18 = sext i16 %17 to i32
  %19 = sub i32 %18, 1
  %20 = call ptr @TupleDescAttr(ptr noundef %16, i32 noundef %19)
  store ptr %20, ptr %10, align 8
  %21 = load ptr, ptr %9, align 8
  %22 = load ptr, ptr %10, align 8
  call void @llvm.memcpy.p0.p0.i64(ptr align 4 %21, ptr align 4 %22, i64 100, i1 false)
  %23 = load i16, ptr %6, align 2
  %24 = load ptr, ptr %9, align 8
  %25 = getelementptr inbounds nuw %struct.FormData_pg_attribute, ptr %24, i32 0, i32 4
  store i16 %23, ptr %25, align 2
  %26 = load ptr, ptr %9, align 8
  %27 = getelementptr inbounds nuw %struct.FormData_pg_attribute, ptr %26, i32 0, i32 11
  store i8 0, ptr %27, align 2
  %28 = load ptr, ptr %9, align 8
  %29 = getelementptr inbounds nuw %struct.FormData_pg_attribute, ptr %28, i32 0, i32 12
  store i8 0, ptr %29, align 1
  %30 = load ptr, ptr %9, align 8
  %31 = getelementptr inbounds nuw %struct.FormData_pg_attribute, ptr %30, i32 0, i32 13
  store i8 0, ptr %31, align 4
  %32 = load ptr, ptr %9, align 8
  %33 = getelementptr inbounds nuw %struct.FormData_pg_attribute, ptr %32, i32 0, i32 14
  store i8 0, ptr %33, align 1
  %34 = load ptr, ptr %9, align 8
  %35 = getelementptr inbounds nuw %struct.FormData_pg_attribute, ptr %34, i32 0, i32 15
  store i8 0, ptr %35, align 2
  %36 = load ptr, ptr %5, align 8
  %37 = load i16, ptr %6, align 2
  %38 = sext i16 %37 to i32
  %39 = sub i32 %38, 1
  call void @populate_compact_attribute(ptr noundef %36, i32 noundef %39)
  call void @llvm.lifetime.end.p0(i64 8, ptr %10) #8
  call void @llvm.lifetime.end.p0(i64 8, ptr %9) #8
  ret void
}