; Function Attrs: nounwind uwtable
define dso_local void @TupleDescCopyEntry(ptr noundef captures(none) %0, i16 noundef signext %1, ptr noundef readonly captures(none) %2, i16 noundef signext %3) local_unnamed_addr #0 {
  %5 = sext i16 %1 to i32
  %6 = add nsw i32 %5, -1
  %7 = load i32, ptr %0, align 8
  %8 = sext i32 %7 to i64
  %9 = shl nsw i64 %8, 4
  %10 = getelementptr i8, ptr %0, i64 %9
  %11 = getelementptr i8, ptr %10, i64 24
  %12 = sext i32 %6 to i64
  %13 = getelementptr inbounds %struct.FormData_pg_attribute, ptr %11, i64 %12
  %14 = sext i16 %3 to i64
  %15 = load i32, ptr %2, align 8
  %16 = sext i32 %15 to i64
  %17 = shl nsw i64 %16, 4
  %18 = getelementptr i8, ptr %2, i64 %17
  %19 = getelementptr i8, ptr %18, i64 -76
  %20 = getelementptr %struct.FormData_pg_attribute, ptr %19, i64 %14
  tail call void @llvm.memcpy.p0.p0.i64(ptr noundef nonnull align 4 dereferenceable(100) %13, ptr noundef nonnull align 4 dereferenceable(100) %20, i64 100, i1 false)
  %21 = getelementptr inbounds nuw i8, ptr %13, i64 74
  store i16 %1, ptr %21, align 2
  %22 = getelementptr inbounds nuw i8, ptr %13, i64 86
  tail call void @llvm.memset.p0.i64(ptr noundef nonnull align 2 dereferenceable(5) %22, i8 0, i64 5, i1 false)
  tail call void @populate_compact_attribute(ptr noundef nonnull %0, i32 noundef %6)
  ret void
}